MPASM 5.76                          MAIN.ASM   12-2-2021  16:40:34         PAGE  1


LOC  OBJECT CODE     LINE SOURCE TEXT
  VALUE

                      00001 ;====================================================================
                      00002 ; Main.asm file generated by New Project wizard
                      00003 ;
                      00004 ; Created:   –í—Å –Ω–æ—è 14 2021
                      00005 ; Processor: PIC12F675
                      00006 ; Compiler:  MPASM (Proteus)
                      00007 ;====================================================================
                      00008 
                      00009 ;====================================================================
                      00010 ; DEFINITIONS
                      00011 ;====================================================================
                      00012 
                      00013 #include p12f675.inc                ; Include register definition file
                      00001         LIST
                      00002 
                      00003 ;==========================================================================
                      00004 ; Build date : Sep 19 2017
                      00005 ;  MPASM PIC12F675 processor include
                      00006 ; 
                      00007 ;  (c) Copyright 1999-2017 Microchip Technology, All rights reserved
                      00008 ;==========================================================================
                      00009 
                      00367         LIST
Warning[205]: Found directive in column 1. (__CONFIG)
2007   3FF4           00014 __CONFIG b'11111111110100'
                      00015 
                      00016 ;====================================================================
                      00017 ; CONSTANTS
                      00018 ;====================================================================
                      00019 
  00000000            00020 GPIO_DATA equ b'0000000' 
  000000C8            00021 INTERRUPT_INIT equ b'11001000'
  00000000            00022 PIE1_INIT equ b'00000000'
  00000000            00023 TMR1H_INIT equ 0x0
  00000000            00024 TMR1L_INIT equ 0x0
  00000000            00025 TMR0_INIT equ 0x0
  00000034            00026 WPU_INIT equ b'110100'                  ; GPIO1 –ò GPIO5 - –º–±–± –∫–∞–∫ READ —Ç–∞–∫ –∏ WRITE —Ä–µ–∂–∏–º
                            . –î–ª—è –∫–Ω–æ–ø–∫–∏ (–∏–∑–Ω–∞—á–∞–ª—å–Ω–æ!) –∏ TX; –î–ª—è RX –∏ Data —Å–æ–æ—Ç–≤–µ—Ç—Å—Ç–≤–µ–Ω–
  00000003            00027 IOC_INIT equ b'000011'
  00000000            00028 T1CON_INIT equ b'00000000'
                      00029 ;====================================================================
                      00030 ; VARIABLES
                      00031 ;====================================================================
                      00032 
  00000020            00033 UART_CON equ 20h
Warning[207]: Found label after column 1. (BUSY_F)
  00000000            00034         BUSY_F equ 00h
Warning[207]: Found label after column 1. (TR_F)
  00000001            00035         TR_F equ 01h
Warning[207]: Found label after column 1. (RD_F)
  00000002            00036         RD_F equ 02h
Warning[207]: Found label after column 1. (T0_MODE)
  00000003            00037         T0_MODE equ 03h
MPASM 5.76                          MAIN.ASM   12-2-2021  16:40:34         PAGE  2


LOC  OBJECT CODE     LINE SOURCE TEXT
  VALUE

Warning[207]: Found label after column 1. (DATA_INC_F)
  00000004            00038         DATA_INC_F equ 04h
Warning[207]: Found label after column 1. (BIT9)
  00000005            00039         BIT9 equ 05h
Warning[207]: Found label after column 1. (SEG7_Display_F)
  00000006            00040         SEG7_Display_F equ 06h
Warning[207]: Found label after column 1. (SaveDataOrAddr)
  00000007            00041         SaveDataOrAddr equ 07h          ; || 0 - Addr | 1 - Data ||
                      00042 
  00000021            00043 UART_t0 equ 21h
Warning[207]: Found label after column 1. (WAIT_HalfBaud)
  00000000            00044         WAIT_HalfBaud equ 00h
Warning[207]: Found label after column 1. (WAIT_FullBaud)
  00000001            00045         WAIT_FullBaud equ 01h
                      00046 ;LEDS_STATES equ 21h
                      00047 ;LED1 equ 00h
                      00048 ;LED2 equ 01h
                      00049 ;LED3 equ 02h
                      00050 
                      00051 
                      00052 
  00000000            00053 btn_SEND equ GPIO0
  00000003            00054 btn_RST equ GPIO3
  00000001            00055 btn_INC equ GPIO1
                      00056 
                      00057 ;pc_states equ 21h
                      00058 ;in_work_flag equ 00h
                      00059 ;btn_wait_flag equ 01h
                      00060 ;btn2_st equ 02h
                      00061 ;btn3_st equ 03h
                      00062 
  00000022            00063 T1H_REG equ 22h
  00000023            00064 T1L_REG equ 23h
                      00065 
  00000024            00066 T02SecScaler equ 24h
                      00067 
  00000025            00068 LastPortState equ 25h
                      00069 
  00000026            00070 Accum equ 26h
                      00071 
  00000027            00072 Lcd_data equ 27h
                      00073 
  00000028            00074 Loop_ident equ 28h
                      00075 
  00000029            00076 SERBUF equ 29h          ; TODO
  0000002A            00077 TEMP equ 2Ah
                      00078 
  00000001            00079 TX equ GPIO1
  00000005            00080 RX equ GPIO5
                      00081 
                      00082 
                      00083 
  0000002B            00084 LastPressedBtns equ 2Bh         ;  || 0 bit - SB_SEND | 1 bit - SB_INC/TX | 2 bit - RX/DATA_7_SEG ||
MPASM 5.76                          MAIN.ASM   12-2-2021  16:40:34         PAGE  3


LOC  OBJECT CODE     LINE SOURCE TEXT
  VALUE

  00000000            00085 SB_SEND_Ch equ 00h
  00000001            00086 SB_INC_Ch equ 01h
                      00087 ;--
                      00088 
  0000002C            00089 ADDR_reg equ 2Ch
  0000002D            00090 DATA_reg equ 2Dh
                      00091 
  0000002E            00092 ButtonModes equ 2Eh
Warning[207]: Found label after column 1. (SB0_M0)
  00000000            00093         SB0_M0  equ 00h
Warning[207]: Found label after column 1. (SB0_M1)
  00000001            00094         SB0_M1  equ 01h
                      00095 
                      00096 
  0000002F            00097 SEV_SEGM_reg equ 2Fh
                      00098 
                      00099 
                      00100 
                      00101 
                      00102 ;====================================================================
                      00103 ; RESET and INTERRUPT VECTORS
                      00104 ;====================================================================
                      00105 
                      00106       ; Reset Vector
                      00107 RST   code  0x0 
0000   2???           00108       goto  START
                      00109 
                      00110 INT code 0x4
0004   2???           00111         goto IINT_HNDL
                      00112         
                      00113         
                      00114 ;====================================================================
                      00115 ; CODE SEGMENT
                      00116 ;====================================================================
                      00117 
                      00118 PGM   code
                      00119 
0000                  00120 Init
                      00121         
0000   1683           00122         banksel ANSEL
Message[302]: Register in operand not in bank 0.  Ensure that bank bits are correct.
0001   019F           00123     clrf ANSEL
                      00124 
0002   1283           00125     banksel CMCON
0003   3007           00126     movlw 0x7
0004   0099           00127     movwf CMCON
                      00128 
0005   1283           00129           banksel GPIO
                      00130     ;movlw b'10' ; Default GPIO data
0006   3000           00131         movlw GPIO_DATA
0007   0085           00132     movwf GPIO
                      00133         
0008   1683           00134          banksel TRISIO
MPASM 5.76                          MAIN.ASM   12-2-2021  16:40:34         PAGE  4


LOC  OBJECT CODE     LINE SOURCE TEXT
  VALUE

0009   300B           00135     movlw b'00001011'   ; GPIO Port options
Message[302]: Register in operand not in bank 0.  Ensure that bank bits are correct.
000A   0085           00136     movwf TRISIO
                      00137         
000B   1683           00138     banksel OPTION_REG
000C   3048           00139     movlw b'01001000'       ; Options
Message[302]: Register in operand not in bank 0.  Ensure that bank bits are correct.
000D   0081           00140     movwf OPTION_REG
                      00141 
                      00142    
                      00143 
                      00144  
                      00145 
000E   1683           00146     banksel WPU
000F   3034           00147     movlw WPU_INIT  ; Pull ups
Message[302]: Register in operand not in bank 0.  Ensure that bank bits are correct.
0010   0095           00148     movwf WPU
                      00149 
0011   1283           00150     banksel INTCON
0012   30C8           00151     movlw INTERRUPT_INIT   ; Interrupts
0013   008B           00152     movwf INTCON
                      00153 
0014   1683           00154     banksel PIE1
0015   3000           00155     movlw PIE1_INIT  ; Enables timer 1 (16-bit) INTERRRUPT (NO)
Message[302]: Register in operand not in bank 0.  Ensure that bank bits are correct.
0016   008C           00156     movwf PIE1
                      00157 
0017   1283           00158     banksel TMR1H
0018   3000           00159     movlw TMR1H_INIT
0019   008F           00160     movwf TMR1H
001A   3000           00161     movlw TMR1L_INIT
001B   008E           00162     movwf TMR1L
                      00163 
001C   1283           00164     banksel T1CON
001D   3000           00165     movlw T1CON_INIT    ; Enables timer 1
001E   0090           00166     movwf T1CON
                      00167 
001F   1683           00168     banksel IOC
0020   3003           00169     movlw IOC_INIT
Message[302]: Register in operand not in bank 0.  Ensure that bank bits are correct.
0021   0096           00170     movwf IOC
                      00171 
                      00172         ;CALL SavePortStates
0022   0805           00173         movf GPIO, w
0023   00A5           00174         movwf LastPortState
                      00175         
                      00176         
0024   0008           00177     return
                      00178 
0025                  00179 START
0025   2???           00180         CALL Init
Warning[207]: Found label after column 1. (MainLoop)
0026                  00181         MainLoop
MPASM 5.76                          MAIN.ASM   12-2-2021  16:40:34         PAGE  5


LOC  OBJECT CODE     LINE SOURCE TEXT
  VALUE

0026   2???           00182                 GOTO MainLoop
                      00183                 
                      00184                 
                      00185         
0027                  00186 IINT_HNDL
0027   180B           00187         btfsc INTCON,  GPIF
0028   2???           00188         GOTO GPIO_INT
0029   190B           00189         btfsc INTCON, T0IF
002A   2???           00190         GOTO T0_INT
002B   1283           00191         banksel PIR1
002C   180C           00192         btfsc PIR1, TMR1IF
002D   2???           00193         GOTO T1_INT
002E   0008           00194         return
                      00195         
002F                  00196 FindPortDiff
                      00197         ; –î–æ–ø—É—Å—Ç–∏–º, —Å–æ—Å—Ç–æ—è–Ω–∏–µ –ø–æ—Ä—Ç–∞ –∑–∞–ø–∏—Å—ã–≤–∞–µ—Ç—Å—è –≤ —Ä–µ–≥–∏—Å—Ç—Ä Las
                            tPortState
002F   1283           00198         banksel GPIO
Warning[207]: Found label after column 1. (Port_GP0)
0030                  00199         Port_GP0
0030   1805           00200                 btfsc GPIO, btn_SEND; –ï—Å–ª–∏ –Ω–∞–∂–∞—Ç–∞ –∫–Ω–æ–ø–∫–∞ - —Ç–æ (0)
0031   2???           00201                         GOTO Port_GP1 ; –ï—Å–ª–∏ (1)
0032   1C25           00202                         btfss LastPortState, btn_SEND; –ï—Å–ª–∏ (0) (–ï—Å–ª–∏ –≤ LastPortState –∏ –±—ã–ª
                             0 - —Ç–æ –∑–∞–±–∏–≤–∞–µ–º, –∏–Ω–∞—á–µ - –Ω–∞–∂–∞—Ç–∞ –∫–Ω–æ–ø–∫–∞)
0033   2???           00203                                 GOTO Port_GP1; –ï—Å–ª–∏ –æ—Å—Ç–∞—ë—Ç—Å—è –±—ã—Ç—å –Ω–∞–∂–∞—Ç–æ–π
0034   142B           00204                                 bsf LastPressedBtns, SB_SEND_Ch; –ï—Å–ª–∏ –ø—Ä–æ–∏–∑–æ—à–ª–æ –Ω–∞ —Å–∞–º
                            –æ–º –¥–µ–ª–µ –Ω–∞–∂–∞—Ç–∏–µ
Warning[207]: Found label after column 1. (Port_GP1)
0035                  00205         Port_GP1 ; –¢–û–õ–¨–ö–û –í –†–ï–ñ–ò–ú–ï –î–û –æ—Ç–ø—Ä–∞–≤–∫–∏ {TODO}
0035   1A20           00206                 btfsc UART_CON, DATA_INC_F
0036   2???           00207                         GOTO Check_SB_INC; –ï—Å–ª–∏ 1
0037   2???           00208                         GOTO Port_GP5; –ï—Å–ª–∏ 0
Warning[207]: Found label after column 1. (Check_SB_INC)
0038                  00209                 Check_SB_INC
0038   1885           00210                         btfsc GPIO, btn_INC ; –ï—Å–ª–∏ –Ω–∞–∂–∞—Ç–∞ –∫–Ω–æ–ø–∫–∞ - —Ç–æ (0)
0039   2???           00211                                 GOTO Port_GP5
003A   1CA5           00212                                 btfss LastPortState, btn_INC ; –ï—Å–ª–∏ –≤ LastPortState –∏ –±—ã–ª 0 - —
                            Ç–æ –∑–∞–±–∏–≤–∞–µ–º, –∏–Ω–∞—á–µ - –Ω–∞–∂–∞—Ç–∞—è –∫–Ω–æ–ø–∫–∞
003B   2???           00213                                         GOTO Port_GP5 ; –ï—Å–ª–∏ –æ—Å—Ç–∞—ë—Ç—Å—è 
003C   14AB           00214                                         bsf LastPressedBtns, SB_INC_Ch ; –ï—Å–ª–∏ –Ω–∞ —Å–∞–º–æ–º –¥–µ–ª
                            –µ –ø—Ä–æ–∏–∑–æ—à–ª–æ –Ω–∞–∂–∞—Ç–∏–µ
Warning[207]: Found label after column 1. (Port_GP5)
003D                  00215         Port_GP5
                      00216         ; –ù—É–∂–Ω–∞ –ø—Ä–æ–≤–µ—Ä–∫–∞, —á—Ç–æ RX –≤ —Ä–µ–∂–∏–º–µ —á—Ç–µ–Ω–∏—è (–º–± –∏ –Ω–µ –Ω–∞–¥–æ, —Ç
                            –∞–∫ –∫–∞–∫ –Ω–µ —Å—Ä–∞–±–∞—Ç—ã–≤–∞–µ—Ç –ø—Ä–µ—Ä—ã–≤–∞–Ω–∏–µ –ø–æ GPIO –≤–æ –≤—Ä–µ–º—è "–≤—ã–≤–æ
                      00217         ; –ü–æ –°–ü–ê–î–£ –≤—ã–∑—ã–≤–∞–µ—Ç—Å—è –æ–±—Ä–∞–±–æ—Ç–∫–∞ –ø—Ä–∏—Ö–æ–¥—è—â–µ–≥–æ —Å–æ–æ–±—â–µ–Ω–
                            ∏—è
                      00218                 ;btfsc UART_CON, SEG7_Display_F
                      00219                 ;       return; –ï—Å–ª–∏ –ø—Ä–æ–∏—Å—Ö–æ–¥–∏—Ç –≤—ã–≤–æ–¥ - —Ç–æ –Ω–µ –º–æ–∂–µ—Ç –±—ã—Ç—å
                             –Ω–∏–∫–∞–∫ –ø–æ–¥–∫–ª—é—á–µ–Ω –ø–æ—Ä—Ç –∫ RX
                      00220                 ;       bsf UART_CON, RD_F; –ï—Å–ª–∏ –Ω–µ –≤—ã–≤–æ–¥ - —Ç–æ –º–± –∏ RX (—É—Å—Ç–∞–Ω–∞–≤–ª
                            –∏–≤–∞–µ–º —Ñ–ª–∞–≥ —á—Ç–µ–Ω–∏—è)
003D   0008           00221                 return
MPASM 5.76                          MAIN.ASM   12-2-2021  16:40:34         PAGE  6


LOC  OBJECT CODE     LINE SOURCE TEXT
  VALUE

                      00222         ;       btfsc UART_CON, SEG7_Display_F
                      00223         ;               return ; –ï—Å–ª–∏ –≤—ã–≤–æ–¥ –Ω–∞ 7-—Å–µ–≥–º–µ–Ω—Ç–Ω–∏–∫
                      00224         ;               ; –ï—Å–ª–∏ –ß—Ç–µ–Ω–∏–µ —Å RX
                      00225 
003E                  00226 SB0_SEND_HNDL
                      00227         ; 4 –Ω–∞–∂–∞—Ç–∏—è
                      00228         ; –ò–ó–ù–ê–ß–ê–õ–¨–ù–û –Ω–µ –≥–æ—Ä–∏—Ç (–µ—Å–ª–∏ –Ω–µ –±—ã–ª–æ –ø—Ä–∏—Å–ª–∞–Ω–Ω—ã—Ö –¥–∞–Ω–Ω—ã—Ö
                            ) –∏ –Ω–µ –∂–¥—ë—Ç –¥–∞–Ω–Ω—ã–µ –Ω–∏–∫–∞–∫–∏–µ
                      00229         ; 1(00) - –∞–∫—Ç–∏–≤–∏—Ä—É–µ—Ç —Å—á–∏—Ç—ã–≤–∞–Ω–∏–µ –∞–¥—Ä–µ—Å–∞ (–ø–æ–ª—å–∑–æ–≤–∞—Ç–µ–ª—å –Ω–∞–
                            ∂–∏–º–∞–µ—Ç –Ω–∞ –∫–Ω–æ–ø–∫—É INC –¥–ª—è –∏–∑–º–µ–Ω–µ–Ω–∏—è –∞–¥—Ä–µ—Å–∞ –æ—Ç–ø—Ä–∞–≤–∏—Ç–µ–ª—è)
003E   1820           00230         btfsc UART_CON, BUSY_F
003F   2???           00231                         GOTO SB0_ifBusy; –ï—Å–ª–∏ –ø–æ –∫–∞–∫–æ–π-—Ç–æ –ø—Ä–∏—á–∏–Ω–µ UART –∑–∞–Ω—è—Ç - 
                            –∏–ª–∏ –æ–±—Ä–∞–±–æ—Ç–∫–∞ –≤—Ö–æ–¥—è—â–µ–≥–æ –ø–æ—Ç–æ–∫–∞, –ª–∏–±–æ —É–∂–µ –æ–±—Ä–∞–±–æ—Ç–∫–∞ –æ
0040   2???           00232                         GOTO SB0_OK; 
Warning[207]: Found label after column 1. (SB0_ifBusy)
0041                  00233                 SB0_ifBusy
0041   1283           00234                         banksel STATUS
0042   082E           00235                 movf ButtonModes, w
0043   1903           00236                 btfsc STATUS, Z
0044   0008           00237                         return 
0045   2???           00238                         GOTO Fix_addr ; –ï—Å–ª–∏ Z = 1
                      00239                         ; –í–•–û–î–Ø–©–ï–ï –°–û–û–ë–©–ï–ù–ò–ï –û–ë–†–´–í–ê–ï–¢ –í–í–û–î –î–ê–ù–ù–´–•    
Warning[207]: Found label after column 1. (SB0_OK)
0046                  00240         SB0_OK
0046   1283           00241                 banksel STATUS
0047   082E           00242                 movf ButtonModes, w
0048   1D03           00243                 btfss STATUS, Z
0049   2???           00244                         GOTO Fix_addr ; –ï—Å–ª–∏ Z = 0
                      00245 
004A   142E           00246                         bsf ButtonModes, SB0_M0  ;  –ï—Å–ª–∏ Z = 0
004B   1620           00247                         bsf UART_CON, DATA_INC_F ; –†–∞–∑—Ä–µ—à–∞–µ–º —á—Ç–µ–Ω–∏–µ –¥–∞–Ω–Ω—ã—Ö —Å SB_IN
                            C
004C   30FF           00248                         movlw 0FFh
004D   00AF           00249                         movwf SEV_SEGM_reg
004E   1420           00250                         bsf UART_CON, BUSY_F
004F   0008           00251                         return ; TODO
                      00252 
Warning[207]: Found label after column 1. (Fix_addr)
0050                  00253         Fix_addr ; 2 (01) - —Ñ–∏–∫—Å–∏—Ä—É–µ—Ç—Å—è –¥–∞–Ω–Ω—ã–π –∞–¥—Ä–µ—Å. –ü–µ—Ä–µ—Ö–æ–¥–∏—Ç –∫ —Å—á–∏
                            —Ç—ã–≤–∞–Ω–∏—é –¥–∞–Ω–Ω—ã—Ö –æ—Ç–ø—Ä–∞–≤–ª—è–µ–º—ã—Ö
0050   18AE           00254                 btfsc ButtonModes, SB0_M1
0051   2???           00255                         GOTO Fix_data_TX
                      00256                                 
0052   082F           00257                         movf SEV_SEGM_reg, w
0053   00AC           00258                         movwf ADDR_reg
0054   30FF           00259                         movlw 0FFh
0055   00AF           00260                         movwf SEV_SEGM_reg
0056   102E           00261                         bcf ButtonModes, SB0_M0  ;  –ï—Å–ª–∏ Z = 0
0057   14AE           00262                         bsf ButtonModes, SB0_M1  ;  –ï—Å–ª–∏ Z = 0
                      00263 
0058   0008           00264                         return
                      00265 
Warning[207]: Found label after column 1. (Fix_data_TX)
MPASM 5.76                          MAIN.ASM   12-2-2021  16:40:34         PAGE  7


LOC  OBJECT CODE     LINE SOURCE TEXT
  VALUE

0059                  00266         Fix_data_TX  ; 3 (10) - —Ñ–∏–∫—Å–∏—Ä—É—é—Ç—Å—è –æ—Ç–ø—Ä–∞–≤–ª—è–µ–º—ã–µ –¥–∞–Ω–Ω—ã–µ –ò –æ—Ç–ø—Ä
                            –∞–≤–∫–∞ –¥–∞–Ω–Ω—ã—Ö –∏ –∞–¥—Ä–µ—Å–∞
0059   1CAE           00267                 btfss ButtonModes, SB0_M1
005A   0008           00268                         return
                      00269 
005B   082F           00270                         movf SEV_SEGM_reg, w
005C   00AD           00271                         movwf DATA_reg
005D   2???           00272                         CALL TRSF_HNDL
005E   01A0           00273                         clrf UART_CON                                   ; TODO (–ü–†–ê–í–ò–õ–¨–ù–û –õ–ò?
                            ??)
005F   01AE           00274                         clrf ButtonModes
                      00275                         ;clrf SEV_SEGM_reg
0060   0008           00276                         return
                      00277         
0061                  00278 Select_Display_Info
0061   1283           00279         banksel STATUS
Warning[207]: Found label after column 1. (If_0_on7segm)
0062                  00280         If_0_on7segm
0062   3000           00281                 movlw 00h
0063   062F           00282                 xorwf SEV_SEGM_reg, w
0064   1D03           00283                 btfss STATUS, Z
0065   2???           00284                         GOTO If_1_on7segm; –ù–µ —Å–æ–≤–ø–∞–ª–æ —Å "0"
0066   30FC           00285                         movlw b'11111100'
0067   00A7           00286                         movwf Lcd_data
0068   0008           00287                         return
                      00288 
Warning[207]: Found label after column 1. (If_1_on7segm)
0069                  00289         If_1_on7segm
0069   3001           00290                 movlw 01h
006A   062F           00291                 xorwf SEV_SEGM_reg, w
006B   1D03           00292                 btfss STATUS, Z
006C   2???           00293                         GOTO If_2_on7segm; –ù–µ —Å–æ–≤–ø–∞–ª–æ —Å "1"
006D   3060           00294                         movlw b'01100000'
006E   00A7           00295                         movwf Lcd_data
006F   0008           00296                         return
                      00297 
Warning[207]: Found label after column 1. (If_2_on7segm)
0070                  00298         If_2_on7segm
0070   3002           00299                 movlw 02h
0071   062F           00300                 xorwf SEV_SEGM_reg, w
0072   1D03           00301                 btfss STATUS, Z
0073   2???           00302                         GOTO If_3_on7segm; –ù–µ —Å–æ–≤–ø–∞–ª–æ —Å "2"
0074   30DA           00303                         movlw b'11011010'
0075   00A7           00304                         movwf Lcd_data
0076   0008           00305                         return
                      00306 
Warning[207]: Found label after column 1. (If_3_on7segm)
0077                  00307         If_3_on7segm
0077   3003           00308                 movlw 03h
0078   062F           00309                 xorwf SEV_SEGM_reg, w
0079   1D03           00310                 btfss STATUS, Z
007A   2???           00311                         GOTO If_4_on7segm; –ù–µ —Å–æ–≤–ø–∞–ª–æ —Å "3"
007B   30F2           00312                         movlw b'11110010'
MPASM 5.76                          MAIN.ASM   12-2-2021  16:40:34         PAGE  8


LOC  OBJECT CODE     LINE SOURCE TEXT
  VALUE

007C   00A7           00313                         movwf Lcd_data
007D   0008           00314                         return
                      00315 
Warning[207]: Found label after column 1. (If_4_on7segm)
007E                  00316         If_4_on7segm
007E   3004           00317                 movlw 04h
007F   062F           00318                 xorwf SEV_SEGM_reg, w
0080   1D03           00319                 btfss STATUS, Z
0081   2???           00320                         GOTO If_5_on7segm; –ù–µ —Å–æ–≤–ø–∞–ª–æ —Å "4"
0082   3066           00321                         movlw b'01100110'
0083   00A7           00322                         movwf Lcd_data
0084   0008           00323                         return
                      00324 
Warning[207]: Found label after column 1. (If_5_on7segm)
0085                  00325         If_5_on7segm
0085   3005           00326                 movlw 05h
0086   062F           00327                 xorwf SEV_SEGM_reg, w
0087   1D03           00328                 btfss STATUS, Z
0088   2???           00329                         GOTO If_6_on7segm; –ù–µ —Å–æ–≤–ø–∞–ª–æ —Å "5"
0089   30B6           00330                         movlw b'10110110'
008A   00A7           00331                         movwf Lcd_data
008B   0008           00332                         return
                      00333 
Warning[207]: Found label after column 1. (If_6_on7segm)
008C                  00334         If_6_on7segm
008C   3006           00335                 movlw 06h
008D   062F           00336                 xorwf SEV_SEGM_reg, w
008E   1D03           00337                 btfss STATUS, Z
008F   2???           00338                         GOTO If_7_on7segm; –ù–µ —Å–æ–≤–ø–∞–ª–æ —Å "6"
0090   30BE           00339                         movlw b'10111110'
0091   00A7           00340                         movwf Lcd_data
0092   0008           00341                         return
                      00342 
Warning[207]: Found label after column 1. (If_7_on7segm)
0093                  00343         If_7_on7segm
0093   3007           00344                 movlw 07h
0094   062F           00345                 xorwf SEV_SEGM_reg, w
0095   1D03           00346                 btfss STATUS, Z
0096   2???           00347                         GOTO If_8_on7segm; –ù–µ —Å–æ–≤–ø–∞–ª–æ —Å "7"
0097   30E0           00348                         movlw b'11100000'
0098   00A7           00349                         movwf Lcd_data
0099   0008           00350                         return
                      00351                         
Warning[207]: Found label after column 1. (If_8_on7segm)
009A                  00352         If_8_on7segm
009A   3008           00353                 movlw 08h
009B   062F           00354                 xorwf SEV_SEGM_reg, w
009C   1D03           00355                 btfss STATUS, Z
009D   2???           00356                         GOTO If_9_on7segm; –ù–µ —Å–æ–≤–ø–∞–ª–æ —Å "8"
009E   30FE           00357                         movlw b'11111110'
009F   00A7           00358                         movwf Lcd_data
00A0   0008           00359                         return
                      00360 
MPASM 5.76                          MAIN.ASM   12-2-2021  16:40:34         PAGE  9


LOC  OBJECT CODE     LINE SOURCE TEXT
  VALUE

Warning[207]: Found label after column 1. (If_9_on7segm)
00A1                  00361         If_9_on7segm
00A1   3009           00362                 movlw 09h
00A2   062F           00363                 xorwf SEV_SEGM_reg, w
00A3   1D03           00364                 btfss STATUS, Z
00A4   2???           00365                         GOTO If_ERR; –ù–µ —Å–æ–≤–ø–∞–ª–æ —Å "9"
00A5   30F6           00366                         movlw b'11110110'
00A6   00A7           00367                         movwf Lcd_data
00A7   0008           00368                         return
                      00369         
Warning[207]: Found label after column 1. (If_ERR)
00A8                  00370         If_ERR
00A8   3002           00371                 movlw b'00000010'
00A9   00A7           00372                 movwf Lcd_data
00AA   30FF           00373                 movlw 0FFh
00AB   00AF           00374                 movwf SEV_SEGM_reg
00AC   0008           00375                 return
                      00376 
                      00377 
                      00378 
00AD                  00379 Disp_Info_7seg
00AD   1283           00380         banksel GPIO
00AE   3009           00381         movlw .9
00AF   00A8           00382         movwf Loop_ident
Warning[207]: Found label after column 1. (Loop_Disp_bits)
00B0                  00383         Loop_Disp_bits
Message[305]: Using default destination of 1 (file).
00B0   0BA8           00384                 decfsz Loop_ident
00B1   2???           00385                         GOTO Fill_LCD_bit
00B2   2???           00386                         GOTO Shift_reg
Warning[207]: Found label after column 1. (Fill_LCD_bit)
00B3                  00387                         Fill_LCD_bit
00B3   1C27           00388                                 btfss Lcd_data, 00h
00B4   2???           00389                                         GOTO Conf_0bit
00B5   1685           00390                                                 bsf GPIO, GPIO5
00B6   2???           00391                                                 GOTO Transfer_bit_to_7seg
                      00392                                         
Warning[207]: Found label after column 1. (Conf_0bit)
00B7                  00393                                         Conf_0bit
00B7   1285           00394                                                 bcf GPIO, GPIO5
                      00395 
Warning[207]: Found label after column 1. (Transfer_bit_to_7seg)
00B8                  00396                                         Transfer_bit_to_7seg
00B8   1205           00397                                                 bcf GPIO, GPIO4
00B9   1605           00398                                                 bsf GPIO, GPIO4
00BA   1205           00399                                                 bcf GPIO, GPIO4
00BB   0CA7           00400                                                 rrf Lcd_data, f
00BC   2???           00401                                                 GOTO Loop_Disp_bits
                      00402                         
Warning[207]: Found label after column 1. (Shift_reg)
00BD                  00403                         Shift_reg
00BD   1505           00404                                 bsf GPIO, GPIO2
00BE   1105           00405                                 bcf GPIO, GPIO2
MPASM 5.76                          MAIN.ASM   12-2-2021  16:40:34         PAGE 10


LOC  OBJECT CODE     LINE SOURCE TEXT
  VALUE

00BF   0008           00406                                 return
                      00407 
00C0                  00408 SB1_INC_HNDL
00C0   1C20           00409         btfss UART_CON, BUSY_F
00C1   0008           00410                 return ; –ï—Å–ª–∏ –Ω–µ –∑–∞–Ω—è—Ç - –Ω–∞—Ö –Ω–∞–¥–æ —á—Ç–æ-—Ç–æ –∏–Ω–∫—Ä–µ–º–µ–Ω—Ç–∏—Ä–æ
                            –≤–∞—Ç—å? –î–µ–ª–∞—Ç—å –Ω–µ—Ö—Ä–µ–Ω??
                      00411                 
Message[305]: Using default destination of 1 (file).
00C2   0AAF           00412                 incf SEV_SEGM_reg
00C3   2???           00413                 CALL Select_Display_Info
00C4   2???           00414                 CALL Disp_Info_7seg
                      00415                 ; TODO –ù–ê–î–û –º–µ–Ω—è—Ç—å –∫–∞–∫–∏–µ-—Ç–æ –§–õ–ê–ì–ò 100%
00C5   0008           00416                 return 
                      00417 
                      00418 
                      00419 
                      00420 
                      00421 
                      00422 
                      00423 
                      00424 
                      00425 
                      00426 
                      00427         
00C6                  00428 GPIO_INT
                      00429         ;btfss UART_CON, BUSY_F
                      00430         ;       retfie   ; TODO –ú–± –≠–¢–û –ù–ï–ü–†–ê–í–ò–õ–¨–ù–û
                      00431 ;        –ï—Å–ª–∏ UART —Ä–∞–±–æ—Ç–∞–µ—Ç, —Ç–æ –ø—Ä–æ–≤–µ—Ä–∏–º –¥–∞–ª—å—à–µ —á—Ç–æ –±—ã–ª–æ –Ω–∞–∂–∞—Ç–æ
                             (–ø–æ —Ä–µ–∂–∏–º—É UART)
00C6   2???           00432         CALL FindPortDiff
00C7   1920           00433         btfsc UART_CON, RD_F; –ï—Å–ª–∏ —É—Å—Ç–∞–Ω–æ–≤–∏–ª—Å—è —Ñ–ª–∞–≥ RD_F –ø–æ –ø—Ä–µ—Ä—ã–≤–∞–Ω–∏—é, —
                            Ç–æ –∑–Ω–∞—á–∏—Ç –ø—Ä–∏—à—ë–ª start-–±–∏—Ç –ü–û–°–´–õ–ö–ò - –∏ –Ω–∞ –≤—Å—ë –æ—Å—Ç–∞–ª—å–Ω–æ–µ –ø
00C8   2???           00434                 CALL GET_MSG
00C9   18AB           00435         btfsc LastPressedBtns, SB_INC_Ch
00CA   2???           00436                 CALL SB1_INC_HNDL; –ï—Å–ª–∏ –∫–Ω–æ–ø–∫–∞ INC –Ω–∞–∂–∞—Ç–∞
00CB   182B           00437         btfsc LastPressedBtns, SB_SEND_Ch 
00CC   2???           00438                 CALL SB0_SEND_HNDL; –ï—Å–ª–∏ –∫–Ω–æ–ø–∫–∞ SEND –Ω–∞–∂–∞—Ç–∞
00CD   01AB           00439         clrf LastPressedBtns
00CE   1283           00440         banksel GPIO
00CF   0805           00441         movf GPIO, w
00D0   00A5           00442         movwf LastPortState
00D1   1283           00443         banksel INTCON
00D2   100B           00444         bcf INTCON, GPIF
00D3   0009           00445         retfie  ; TODO –ü—Ä–æ–≤–µ—Ä–∏—Ç—å –¥–æ—Å—Ç–∞—Ç–æ—á–Ω–æ –ª–∏ —ç—Ç–æ–≥–æ!
                      00446         
                      00447         
00D4                  00448 T0_INT  ; –°–∫–æ—Ä–æ—Å—Ç—å –≤ 9600 –±–∏—Ç/—Å
00D4   1C20           00449         btfss UART_CON, BUSY_F ; –ü—Ä–æ–≤–µ—Ä–∫–∞, —á—Ç–æ UART —Ä–∞–±–æ—Ç–∞–µ—Ç —Å–µ–π—á–∞—Å (–∞ –Ω–µ –ø
                            —Ä–æ—Å—Ç–∞–∏–≤–∞–µ—Ç)
00D5   0008           00450                 return  ; CHECK IT (–¢–ê–ö –ö–ê–ö –ú–û–ì–£–¢ –ë–´–¢–¨ –î–†–£–ì–ò–ï –ü–†–ò–ß–ò–ù–´ –†–ê–ë
                            –û–¢–´ –¢–ê–ô–ú–ï–†–ê 0!!!!!!!!!!!!!!!!!!)
                      00451                 
                      00452         ;–ï—Å–ª–∏ T0_mode  == 1, —Ç–æ —ç—Ç–æ —Ü–µ–ª—ã–π –±–∏—Ç
MPASM 5.76                          MAIN.ASM   12-2-2021  16:40:34         PAGE 11


LOC  OBJECT CODE     LINE SOURCE TEXT
  VALUE

                      00453         ;–ï—Å–ª–∏ T0_mode  == 0, —Ç–æ —ç—Ç–æ –ø–æ–ª –±–∏—Ç–∞
00D6   19A0           00454         btfsc UART_CON, T0_MODE
00D7   2???           00455                 GOTO T0_UPD_Baud
00D8   2???           00456                 GOTO T0_UPD_HalfBaud
                      00457         
Warning[207]: Found label after column 1. (T0_UPD_Baud)
00D9                  00458         T0_UPD_Baud
00D9   2???           00459                 CALL OneBaud
00DA   0009           00460                 retfie
Warning[207]: Found label after column 1. (T0_UPD_HalfBaud)
00DB                  00461         T0_UPD_HalfBaud
00DB   2???           00462                 CALL HalfBaud
00DC   0009           00463                 retfie
                      00464                 
                      00465                 
                      00466                 
00DD                  00467 T1_INT  
                      00468 
                      00469 
00DD                  00470 TRSF_HNDL
                      00471         ; –í—ã–∑—ã–≤–∞–µ—Ç—Å—è, –µ—Å–ª–∏ —Ä–µ–∂–∏–º –æ—Ç–ø—Ä–∞–≤–∫–∏ —Å–æ–æ–±—â–µ–Ω–∏–π, UART —Å–≤–æ–±–æ
                            –¥–µ–Ω –∏ –±—ã–ª–∞ –Ω–∞–∂–∞—Ç–∞ –∫–Ω–æ–ø–∫–∞ SB0_SEND, –¥–ª—è –∏–Ω–∏—Ü–∏–∞–ª–∏–∑–∞—Ü–∏–∏ –æ—Ç–ø—
                      00472         ; –°–Ω–∞—á–∞–ª–∞ –≤—ã–±–∏—Ä–∞–µ—Ç—Å—è –∞–¥—Ä–µ—Å –æ—Ç–ø—Ä–∞–≤–∏—Ç–µ–ª—è. –î–ª—è —ç—Ç–æ–≥–æ –≤—ã–
                            ∑—ã–≤–∞–µ—Ç—Å—è —Ñ—É–Ω–∫—Ü–∏—è –ø–æ—Å—Ç–æ—è–Ω–Ω–æ–≥–æ –æ–±–Ω–æ–≤–ª–µ–Ω–∏—è 
00DD   082C           00473         movf ADDR_reg, w
00DE   00A9           00474         movwf SERBUF
00DF   2???           00475         CALL SEND_MSG   ; –î–∞–ª–µ–µ –æ—Ç–ø—Ä–∞–≤–ª—è–µ—Ç—Å—è –¥–∞–Ω–Ω—ã–π –±–∏—Ç –≤ TX
                      00476         ; –î–∞–ª–µ–µ —Å–Ω–æ–≤–∞ —Ä–µ–∂–∏–º –≤—ã–±–æ—Ä–∞ –¥–∞–Ω–Ω—ã—Ö –æ—Ç–ø—Ä–∞–≤–ª—è–µ–º—ã—Ö
                      00477         ; –ü–æ –Ω–∞–∂–∞—Ç–∏—é SB_SEND —Ñ–∏–∫—Å–∏—Ä—É—é—Ç—Å—è –¥–∞–Ω–Ω—ã–µ 
                      00478         
                      00479         ; WAIT –º–± –Ω—É–∂–µ–Ω!!!!!!!  TODO
                      00480 
00E0   082D           00481         movf DATA_reg, w
00E1   00A9           00482         movwf SERBUF
00E2   2???           00483         CALL SEND_MSG
                      00484         ; –û—Ç–ø—Ä–∞–≤–∫–∞ –¥–∞–Ω–Ω—ã—Ö –≤ TX
                      00485         ; –°–±—Ä–æ—Å —Ä–µ–∂–∏–º–æ–≤ —Ä–∞–±–æ—Ç—ã –≤ –∏–∑–Ω–∞—á–∞–ª—å–Ω–æ–µ —Å–æ—Å—Ç–æ—è–Ω–∏–µ. –ñ–¥—ë–º 
                            –∏–ª–∏ –Ω–∞–∂–∞—Ç–∏—è –∫–Ω–æ–ø–∫–∏ SB_SEND, –∏–ª–∏ –ø—Ä–∏—Ö–æ–¥–∞ –ø–∞–∫–µ—Ç–∞.
                      00486         
                      00487         
00E3                  00488 HalfBaud
00E3   30CC           00489         movlw .204
00E4   1283           00490         banksel TMR0
00E5   0081           00491         movwf TMR0
00E6   168B           00492         bsf INTCON, T0IE
00E7   1421           00493         bsf UART_t0, WAIT_HalfBaud
Warning[207]: Found label after column 1. (WAIT_forHalfBaud)
00E8                  00494         WAIT_forHalfBaud
00E8   1821           00495                 btfsc UART_t0, WAIT_HalfBaud
00E9   2???           00496                         GOTO WAIT_forHalfBaud
00EA   0008           00497                         return
                      00498 
00EB                  00499 OneBaud
MPASM 5.76                          MAIN.ASM   12-2-2021  16:40:34         PAGE 12


LOC  OBJECT CODE     LINE SOURCE TEXT
  VALUE

00EB   3098           00500         movlw .152
00EC   1283           00501         banksel TMR0
00ED   0081           00502         movwf TMR0
00EE   168B           00503         bsf INTCON, T0IE
00EF   14A1           00504         bsf UART_t0, WAIT_FullBaud
Warning[207]: Found label after column 1. (WAIT_forFullBaud)
00F0                  00505         WAIT_forFullBaud
00F0   18A1           00506                 btfsc UART_t0, WAIT_FullBaud
00F1   2???           00507                         GOTO WAIT_forFullBaud
00F2   0008           00508                         return
                      00509         
00F3                  00510 GET_MSG
00F3   3008           00511         movlw .8
00F4   00AA           00512         movwf TEMP
00F5   01A9           00513         clrf SERBUF
00F6   2???           00514         CALL HalfBaud
00F7   1283           00515         banksel GPIO
Warning[207]: Found label after column 1. (Recieve_data)
00F8                  00516         Recieve_data
00F8   2???           00517                 CALL OneBaud
00F9   1003           00518                 bcf STATUS, C
00FA   0CA9           00519                 rrf SERBUF , f
00FB   1E85           00520                 btfss GPIO, RX
00FC   17A9           00521                 bsf SERBUF, 7
00FD   0BAA           00522                 decfsz TEMP, f
00FE   2???           00523                 GOTO Recieve_data
                      00524                 
00FF   2???           00525                 CALL OneBaud
0100   0829           00526                 movf SERBUF, w                  ; –ù–µ –∑–Ω–∞—é –∑–∞—á–µ–º
0101   3400           00527                 retlw 0
                      00528                 
0102                  00529 SEND_MSG
                      00530         ; TODO –ó–∞–≥—Ä—É–∑–∫–∞ –æ—Ç–ø—Ä–∞–≤–ª—è–µ–º–æ–π –∫–æ–Ω—Å—Ç–∞–Ω—Ç—ã  –ò –∑–∞–≥—Ä—É–∑–∫–∞ 9 –±–∏—
                            Ç–æ–≥–æ
0102   3008           00531         movlw .8
0103   1283           00532         banksel GPIO
0104   1485           00533         bsf GPIO, TX
Warning[207]: Found label after column 1. (Send_data)
0105                  00534         Send_data
0105   0CA9           00535                 rrf SERBUF, f
0106   1C03           00536                 btfss STATUS, C
0107   2???           00537                 GOTO Transfer_0
0108   2???           00538                 GOTO Transfer_1
Warning[207]: Found label after column 1. (Transfer_0)
0109                  00539                 Transfer_0
0109   1085           00540                         bcf GPIO, TX
010A   2???           00541                         GOTO BIT_ready
Warning[207]: Found label after column 1. (Transfer_1)
010B                  00542                 Transfer_1
010B   1485           00543                         bsf GPIO, TX
Warning[207]: Found label after column 1. (BIT_ready)
010C                  00544                 BIT_ready
010C   2???           00545                         CALL OneBaud
MPASM 5.76                          MAIN.ASM   12-2-2021  16:40:34         PAGE 13


LOC  OBJECT CODE     LINE SOURCE TEXT
  VALUE

010D   0BAA           00546                         decfsz TEMP, f
010E   2???           00547                         GOTO Send_data
                      00548                         
010F   1EA0           00549                         btfss UART_CON, BIT9
0110   2???           00550                         GOTO Send_9one
0111   2???           00551                         GOTO Send_9zero
Warning[207]: Found label after column 1. (Send_9one)
0112                  00552                         Send_9one
0112   1485           00553                                 bsf GPIO, TX
0113   2???           00554                                 GOTO Send_Stop
Warning[207]: Found label after column 1. (Send_9zero)
0114                  00555                         Send_9zero
0114   1085           00556                                 bcf GPIO, TX
Warning[207]: Found label after column 1. (Send_Stop)
0115                  00557                         Send_Stop
0115   2???           00558                                 CALL OneBaud
0116   0CA9           00559                                 rrf  SERBUF, f          ; TODO –ó–ê–ß–ï–ú?????
0117   1485           00560                                 bsf GPIO, TX            ; –°–¢–û–ü-–ë–ò–¢
0118   3400           00561                                 retlw 0
                      00562                 
                      00563         
                      00564         
                      00565 
                      00566 
Warning[205]: Found directive in column 1. (END)
3FF4                  00567 END
MPASM 5.76                          MAIN.ASM   12-2-2021  16:40:34         PAGE 14


SYMBOL TABLE
  LABEL                             VALUE 

ADCON0                            0000001F
ADCS0                             00000004
ADCS1                             00000005
ADCS2                             00000006
ADDR_reg                          0000002C
ADFM                              00000007
ADIE                              00000006
ADIF                              00000006
ADON                              00000000
ADRESH                            0000001E
ADRESL                            0000009E
ANS0                              00000000
ANS1                              00000001
ANS2                              00000002
ANS3                              00000003
ANSEL                             0000009F
Accum                             00000026
BIT9                              00000005
BIT_ready                         0000010C
BUSY_F                            00000000
ButtonModes                       0000002E
C                                 00000000
CAL0                              00000002
CAL1                              00000003
CAL2                              00000004
CAL3                              00000005
CAL4                              00000006
CAL5                              00000007
CHS0                              00000002
CHS1                              00000003
CINV                              00000004
CIS                               00000003
CM0                               00000000
CM1                               00000001
CM2                               00000002
CMCON                             00000019
CMIE                              00000003
CMIF                              00000003
COUT                              00000006
Check_SB_INC                      00000038
Conf_0bit                         000000B7
DATA_INC_F                        00000004
DATA_reg                          0000002D
DC                                00000001
Disp_Info_7seg                    000000AD
EEADR                             0000009B
EECON1                            0000009C
EECON2                            0000009D
EEDAT                             0000009A
EEDATA                            0000009A
EEIE                              00000007
EEIF                              00000007
F                                 00000001
MPASM 5.76                          MAIN.ASM   12-2-2021  16:40:34         PAGE 15


SYMBOL TABLE
  LABEL                             VALUE 

FSR                               00000004
Fill_LCD_bit                      000000B3
FindPortDiff                      0000002F
Fix_addr                          00000050
Fix_data_TX                       00000059
GET_MSG                           000000F3
GIE                               00000007
GO                                00000001
GO_DONE                           00000001
GO_NOT_DONE                       00000001
GP0                               00000000
GP1                               00000001
GP2                               00000002
GP3                               00000003
GP4                               00000004
GP5                               00000005
GPIE                              00000003
GPIF                              00000000
GPIO                              00000005
GPIO0                             00000000
GPIO1                             00000001
GPIO2                             00000002
GPIO3                             00000003
GPIO4                             00000004
GPIO5                             00000005
GPIO_DATA                         00000000
GPIO_INT                          000000C6
HalfBaud                          000000E3
IINT_HNDL                         00000027
INDF                              00000000
INTCON                            0000000B
INTE                              00000004
INTEDG                            00000006
INTERRUPT_INIT                    000000C8
INTF                              00000001
IOC                               00000096
IOC0                              00000000
IOC1                              00000001
IOC2                              00000002
IOC3                              00000003
IOC4                              00000004
IOC5                              00000005
IOCB                              00000096
IOCB0                             00000000
IOCB1                             00000001
IOCB2                             00000002
IOCB3                             00000003
IOCB4                             00000004
IOCB5                             00000005
IOC_INIT                          00000003
IRP                               00000007
If_0_on7segm                      00000062
If_1_on7segm                      00000069
MPASM 5.76                          MAIN.ASM   12-2-2021  16:40:34         PAGE 16


SYMBOL TABLE
  LABEL                             VALUE 

If_2_on7segm                      00000070
If_3_on7segm                      00000077
If_4_on7segm                      0000007E
If_5_on7segm                      00000085
If_6_on7segm                      0000008C
If_7_on7segm                      00000093
If_8_on7segm                      0000009A
If_9_on7segm                      000000A1
If_ERR                            000000A8
Init                              00000000
LastPortState                     00000025
LastPressedBtns                   0000002B
Lcd_data                          00000027
Loop_Disp_bits                    000000B0
Loop_ident                        00000028
MainLoop                          00000026
NOT_BOD                           00000000
NOT_BOR                           00000000
NOT_DONE                          00000001
NOT_GPPU                          00000007
NOT_PD                            00000003
NOT_POR                           00000001
NOT_T1SYNC                        00000002
NOT_TO                            00000004
OPTION_REG                        00000081
OSCCAL                            00000090
OneBaud                           000000EB
PCL                               00000002
PCLATH                            0000000A
PCON                              0000008E
PEIE                              00000006
PIE1                              0000008C
PIE1_INIT                         00000000
PIR1                              0000000C
PS0                               00000000
PS1                               00000001
PS2                               00000002
PSA                               00000003
Port_GP0                          00000030
Port_GP1                          00000035
Port_GP5                          0000003D
RD                                00000000
RD_F                              00000002
RP0                               00000005
RP1                               00000006
RX                                00000005
Recieve_data                      000000F8
SB0_M0                            00000000
SB0_M1                            00000001
SB0_OK                            00000046
SB0_SEND_HNDL                     0000003E
SB0_ifBusy                        00000041
SB1_INC_HNDL                      000000C0
MPASM 5.76                          MAIN.ASM   12-2-2021  16:40:34         PAGE 17


SYMBOL TABLE
  LABEL                             VALUE 

SB_INC_Ch                         00000001
SB_SEND_Ch                        00000000
SEG7_Display_F                    00000006
SEND_MSG                          00000102
SERBUF                            00000029
SEV_SEGM_reg                      0000002F
START                             00000025
STATUS                            00000003
SaveDataOrAddr                    00000007
Select_Display_Info               00000061
Send_9one                         00000112
Send_9zero                        00000114
Send_Stop                         00000115
Send_data                         00000105
Shift_reg                         000000BD
T02SecScaler                      00000024
T0CS                              00000005
T0IE                              00000005
T0IF                              00000002
T0SE                              00000004
T0_INT                            000000D4
T0_MODE                           00000003
T0_UPD_Baud                       000000D9
T0_UPD_HalfBaud                   000000DB
T1CKPS0                           00000004
T1CKPS1                           00000005
T1CON                             00000010
T1CON_INIT                        00000000
T1H_REG                           00000022
T1IE                              00000000
T1IF                              00000000
T1L_REG                           00000023
T1OSCEN                           00000003
T1_INT                            000000DD
TEMP                              0000002A
TMR0                              00000001
TMR0IE                            00000005
TMR0IF                            00000002
TMR0_INIT                         00000000
TMR1                              0000000E
TMR1CS                            00000001
TMR1GE                            00000006
TMR1H                             0000000F
TMR1H_INIT                        00000000
TMR1IE                            00000000
TMR1IF                            00000000
TMR1L                             0000000E
TMR1L_INIT                        00000000
TMR1ON                            00000000
TRISIO                            00000085
TRISIO0                           00000000
TRISIO1                           00000001
TRISIO2                           00000002
MPASM 5.76                          MAIN.ASM   12-2-2021  16:40:34         PAGE 18


SYMBOL TABLE
  LABEL                             VALUE 

TRISIO3                           00000003
TRISIO4                           00000004
TRISIO5                           00000005
TRSF_HNDL                         000000DD
TR_F                              00000001
TX                                00000001
Transfer_0                        00000109
Transfer_1                        0000010B
Transfer_bit_to_7seg              000000B8
UART_CON                          00000020
UART_t0                           00000021
VCFG                              00000006
VR0                               00000000
VR1                               00000001
VR2                               00000002
VR3                               00000003
VRCON                             00000099
VREN                              00000007
VRR                               00000005
W                                 00000000
WAIT_FullBaud                     00000001
WAIT_HalfBaud                     00000000
WAIT_forFullBaud                  000000F0
WAIT_forHalfBaud                  000000E8
WPU                               00000095
WPU0                              00000000
WPU1                              00000001
WPU2                              00000002
WPU4                              00000004
WPU5                              00000005
WPU_INIT                          00000034
WR                                00000001
WREN                              00000002
WRERR                             00000003
Z                                 00000002
_BODEN_OFF                        00003FBF
_BODEN_ON                         00003FFF
_BOREN_OFF                        00003FBF
_BOREN_ON                         00003FFF
_CONFIG                           00002007
_CPD_OFF                          00003FFF
_CPD_ON                           00003EFF
_CP_OFF                           00003FFF
_CP_ON                            00003F7F
_DEVID1                           00002006
_EC_OSC                           00003FFB
_EXTRC_OSC_CLKOUT                 00003FFF
_EXTRC_OSC_NOCLKOUT               00003FFE
_FOSC_EC                          00003FFB
_FOSC_EXTRCCLK                    00003FFF
_FOSC_EXTRCIO                     00003FFE
_FOSC_HS                          00003FFA
_FOSC_INTRCCLK                    00003FFD
MPASM 5.76                          MAIN.ASM   12-2-2021  16:40:34         PAGE 19


SYMBOL TABLE
  LABEL                             VALUE 

_FOSC_INTRCIO                     00003FFC
_FOSC_LP                          00003FF8
_FOSC_XT                          00003FF9
_HS_OSC                           00003FFA
_IDLOC0                           00002000
_IDLOC1                           00002001
_IDLOC2                           00002002
_IDLOC3                           00002003
_INTRC_OSC_CLKOUT                 00003FFD
_INTRC_OSC_NOCLKOUT               00003FFC
_LP_OSC                           00003FF8
_MCLRE_OFF                        00003FDF
_MCLRE_ON                         00003FFF
_PWRTE_OFF                        00003FFF
_PWRTE_ON                         00003FEF
_WDTE_OFF                         00003FF7
_WDTE_ON                          00003FFF
_WDT_OFF                          00003FF7
_WDT_ON                           00003FFF
_XT_OSC                           00003FF9
__12F675                          00000001
btn_INC                           00000001
btn_RST                           00000003
btn_SEND                          00000000

Errors   :     0
Warnings :    51 reported,     0 suppressed
Messages :     8 reported,     0 suppressed

