MPASM 5.76                          MAIN.ASM   11-25-2021  16:34:21         PAGE  1


LOC  OBJECT CODE     LINE SOURCE TEXT
  VALUE

                      00001 ;====================================================================
                      00002 ; Main.asm file generated by New Project wizard
                      00003 ;
                      00004 ; Created:   –í—Å –Ω–æ—è 14 2021
                      00005 ; Processor: PIC12F675
                      00006 ; Compiler:  MPASM (Proteus)
                      00007 ;====================================================================
                      00008 
                      00009 ;====================================================================
                      00010 ; DEFINITIONS
                      00011 ;====================================================================
                      00012 
                      00013 #include p12f675.inc                ; Include register definition file
                      00001         LIST
                      00002 
                      00003 ;==========================================================================
                      00004 ; Build date : Sep 19 2017
                      00005 ;  MPASM PIC12F675 processor include
                      00006 ; 
                      00007 ;  (c) Copyright 1999-2017 Microchip Technology, All rights reserved
                      00008 ;==========================================================================
                      00009 
                      00367         LIST
Warning[205]: Found directive in column 1. (__CONFIG)
2007   3FD4           00014 __CONFIG b'11111111010100'
                      00015 
                      00016 ;====================================================================
                      00017 ; CONSTANTS
                      00018 ;====================================================================
                      00019 
  00000028            00020 GPIO_DATA equ b'00101000' 
  000000C8            00021 INTERRUPT_INIT equ b'11001000'
  00000000            00022 PIE1_INIT equ b'00000000'
  00000000            00023 TMR1H_INIT equ 0x0
  00000000            00024 TMR1L_INIT equ 0x0
  00000000            00025 TMR0_INIT equ 0x0
  00000017            00026 WPU_INIT equ b'010111'
  00000028            00027 IOC_INIT equ b'101000'
  00000000            00028 T1CON_INIT equ b'00000000'
                      00029 ;====================================================================
                      00030 ; VARIABLES
                      00031 ;====================================================================
                      00032 
  00000020            00033 sound_flags equ 20h
  00000000            00034 snd1_flag equ 00h
  00000001            00035 snd2_flag equ 01h
  00000002            00036 snd3_flag equ 02h
                      00037 
                      00038 ;LEDS_STATES equ 21h
                      00039 ;LED1 equ 00h
                      00040 ;LED2 equ 01h
                      00041 ;LED3 equ 02h
                      00042 
MPASM 5.76                          MAIN.ASM   11-25-2021  16:34:21         PAGE  2


LOC  OBJECT CODE     LINE SOURCE TEXT
  VALUE

  00000000            00043 sound equ GP0
                      00044 
  00000003            00045 btn1 equ GP3
  00000005            00046 btn2 equ GP5
                      00047 
  00000021            00048 pc_states equ 21h
  00000000            00049 in_work_flag equ 00h
  00000001            00050 btn_wait_flag equ 01h
  00000002            00051 btn2_st equ 02h
  00000003            00052 btn3_st equ 03h
                      00053 
  00000022            00054 T1H_REG equ 22h
  00000023            00055 T1L_REG equ 23h
                      00056 
  00000024            00057 T02SecScaler equ 24h
                      00058 
  00000025            00059 LastPortState equ 25h
                      00060 
  00000026            00061 Accum equ 26h
                      00062 
                      00063 ;====================================================================
                      00064 ; RESET and INTERRUPT VECTORS
                      00065 ;====================================================================
                      00066 
                      00067       ; Reset Vector
                      00068 RST   code  0x0 
0000   2???           00069       goto  START
                      00070 
                      00071 INT code 0x4
0004   2???           00072         goto IINT_HNDL
                      00073         
                      00074         
                      00075 ;====================================================================
                      00076 ; CODE SEGMENT
                      00077 ;====================================================================
                      00078 
                      00079 PGM   code
                      00080 
0000                  00081 Init
                      00082         
0000   1683           00083         banksel ANSEL
Message[302]: Register in operand not in bank 0.  Ensure that bank bits are correct.
0001   019F           00084     clrf ANSEL
                      00085 
0002   1283           00086     banksel CMCON
0003   3007           00087     movlw 0x7
0004   0099           00088     movwf CMCON
                      00089 
0005   1683           00090     banksel OPTION_REG
0006   3048           00091     movlw b'01001000'       ; Options
Message[302]: Register in operand not in bank 0.  Ensure that bank bits are correct.
0007   0081           00092     movwf OPTION_REG
                      00093 
MPASM 5.76                          MAIN.ASM   11-25-2021  16:34:21         PAGE  3


LOC  OBJECT CODE     LINE SOURCE TEXT
  VALUE

0008   1683           00094     banksel TRISIO
0009   3028           00095     movlw b'00101000'   ; GPIO Port options
Message[302]: Register in operand not in bank 0.  Ensure that bank bits are correct.
000A   0085           00096     movwf TRISIO
                      00097 
000B   1283           00098     banksel GPIO
000C   3002           00099     movlw b'10' ; Default GPIO data
000D   00A8           00100     movwf GPIO_DATA
000E   0085           00101     movwf GPIO
                      00102 
000F   1683           00103     banksel WPU
0010   3017           00104     movlw WPU_INIT  ; Pull ups
Message[302]: Register in operand not in bank 0.  Ensure that bank bits are correct.
0011   0095           00105     movwf WPU
                      00106 
0012   1283           00107     banksel INTCON
0013   30C8           00108     movlw INTERRUPT_INIT   ; Interrupts
0014   008B           00109     movwf INTCON
                      00110 
0015   1683           00111     banksel PIE1
0016   3000           00112     movlw PIE1_INIT  ; Enables timer 1 (16-bit) INTERRRUPT (NO)
Message[302]: Register in operand not in bank 0.  Ensure that bank bits are correct.
0017   008C           00113     movwf PIE1
                      00114 
0018   1283           00115     banksel TMR1H
0019   3000           00116     movlw TMR1H_INIT
001A   008F           00117     movwf TMR1H
001B   3000           00118     movlw TMR1L_INIT
001C   008E           00119     movwf TMR1L
                      00120 
001D   1283           00121     banksel T1CON
001E   3000           00122     movlw T1CON_INIT    ; Enables timer 1
001F   0090           00123     movwf T1CON
                      00124 
0020   1683           00125     banksel IOC
0021   3028           00126     movlw IOC_INIT
Message[302]: Register in operand not in bank 0.  Ensure that bank bits are correct.
0022   0096           00127     movwf IOC
                      00128 
0023   2???           00129         CALL SavePortStates
                      00130         
0024   0008           00131     return
                      00132         
                      00133         
0025                  00134 IINT_HNDL
0025   180B           00135         btfsc INTCON,  GPIF
0026   2???           00136         GOTO GPIO_INT
0027   190B           00137         btfsc INTCON, T0IF
0028   2???           00138         GOTO T0_INT
0029   1283           00139         banksel PIR1
002A   180C           00140         btfsc PIR1, TMR1IF
002B   2???           00141         GOTO T1_INT
002C   0008           00142         return
MPASM 5.76                          MAIN.ASM   11-25-2021  16:34:21         PAGE  4


LOC  OBJECT CODE     LINE SOURCE TEXT
  VALUE

                      00143         
                      00144         
                      00145         
002D                  00146 SavePortStates
002D   1283           00147         banksel  GPIO
002E   0805           00148         movf GPIO, w
002F   00A5           00149         movwf LastPortState
0030   0008           00150         return
                      00151         
0031                  00152 CheckOnDownChanges
0031   1283           00153         banksel  GPIO
                      00154         ; –ü—Ä–æ–≤–µ—Ä–∫–∞ SB2
0032   1DA5           00155         btfss LastPortState, GPIO3
0033   2???           00156         GOTO CompareSB3
Warning[207]: Found label after column 1. (CompareSB2_1)
0034                  00157         CompareSB2_1
0034   1985           00158                 btfsc GPIO, GPIO3
0035   2???           00159                         GOTO CompareSB3
Warning[219]: Invalid RAM location specified.
Message[302]: Register in operand not in bank 0.  Ensure that bank bits are correct.
0036   047F           00160                         iorwf 0FFh, w
0037   0008           00161                         return          ; –ü—Ä–æ–∏–∑–æ—à–ª–æ –Ω–∞–∂–∞—Ç–∏–µ SB2
                      00162         
Warning[207]: Found label after column 1. (CompareSB3)
0038                  00163         CompareSB3
0038   1AA5           00164                 btfsc LastPortState, GPIO5
0039   2???           00165                 GOTO CompareSB3_1
003A   0103           00166                 clrw
003B   0008           00167                 return
Warning[207]: Found label after column 1. (CompareSB3_1)
003C                  00168                 CompareSB3_1
003C   1A85           00169                         btfsc GPIO, GPIO5
003D   2???           00170                                 GOTO Nothing
Warning[219]: Invalid RAM location specified.
Message[302]: Register in operand not in bank 0.  Ensure that bank bits are correct.
003E   047F           00171                                 iorwf 0FFh, w
003F   0008           00172                                 return          ; –ü—Ä–æ–∏–∑–æ—à–ª–æ –Ω–∞–∂–∞—Ç–∏–µ SB2
Warning[207]: Found label after column 1. (Nothing)
0040                  00173         Nothing
                      00174                 ; –ü—Ä–æ–∏–∑–æ—à–ª–∏ —Ç–æ–ª—å–∫–æ –æ—Ç–∂–∞—Ç–∏—è
0040   0103           00175                 clrw
0041   0008           00176                 return
                      00177                 
0042                  00178 Reset2SecTimer  
0042   2???           00179         CALL Start2SecTmr
0043   2???           00180         CALL SavePortStates
0044   100B           00181         bcf INTCON, GPIF
0045   0009           00182         retfie
                      00183                 
                      00184         
0046                  00185 GPIO_INT 
0046   2???           00186         CALL CheckOnDownChanges
                      00187         ;movf W, w
MPASM 5.76                          MAIN.ASM   11-25-2021  16:34:21         PAGE  5


LOC  OBJECT CODE     LINE SOURCE TEXT
  VALUE

                      00188         ;banksel STATUS
0047   1D03           00189         btfss STATUS, Z
0048   2???           00190         GOTO IfUp       
0049   2???           00191                 CALL SavePortStates
004A   100B           00192                 bcf INTCON, GPIF                
004B   0009           00193                 retfie
                      00194         ; –¢–æ–ª—å–∫–æ –æ—Ç–∂–∞—Ç–∏—è   
Warning[207]: Found label after column 1. (IfUp)
004C                  00195         IfUp
Warning[207]: Found label after column 1. (SB2_check)
004C                  00196                 SB2_check
004C   1283           00197                         banksel GPIO
004D   1985           00198                         btfsc GPIO, GPIO3
004E   2???           00199                         GOTO SB3_check
                      00200                         ; –û–±—Ä–∞–±–æ—Ç–∫–∞ –Ω–∞–∂–∞—Ç–∏—è –∫–ª–∞–≤–∏—à–∏ SB2  + –ø—Ä–æ–≤–µ—Ä–∫–∞ –Ω–∞–
                            ∂–∞—Ç–∏—è —Å—Ä–∞–∑—É –≤—Ç–æ—Ä–æ–π
004F   1A85           00201                         btfsc GPIO, GPIO5
0050   2???           00202                         GOTO ONLY_SB2
                      00203                         ; –ï—Å–ª–∏ –Ω–∞–∂–∞—Ç—ã –¥–≤–µ –∫–Ω–æ–ø–∫–∏
0051   128B           00204                                 bcf INTCON, T0IE
0052   3001           00205                                 movlw 1h
0053   05A1           00206                                 andwf pc_states, f
0054   2???           00207                                 CALL Start_Mode3
0055   100B           00208                                 bcf INTCON, GPIF
0056   2???           00209                                 CALL SavePortStates
0057   0009           00210                                 retfie
                      00211                         
Warning[207]: Found label after column 1. (ONLY_SB2)
0058                  00212                         ONLY_SB2
                      00213                                 ; –ó–∞–ø—É—Å–∫ —Ç–∞–π–º–µ—Ä–∞ –Ω–∞ 1 –º—Å –≤ –æ–∂–∏–¥–∞–Ω–∏–∏ –Ω–∞–∂–∞—Ç
                            –∏—è –≤—Ç–æ—Ä–æ–π –∫–Ω–æ–ø–∫–∏, –ø–æ—Å–ª–µ —ç—Ç–æ–≥–æ –ø—Ä–æ–∏—Å—Ö–æ–¥–∏—Ç –æ–±—Ä–∞–±–æ—Ç–∫–∞ –∫
0058   110B           00214                                 bcf INTCON, T0IF
0059   1820           00215                                 btfsc sound_flags, snd1_flag
005A   2???           00216                                         GOTO Reset2SecTimer; –ï—Å–ª–∏ —Ç–µ–∫—É—â–∏–π —Ä–µ–∂–∏–º –ø–æ–¥–æ
                            —à—ë–ª
                      00217                                         
                      00218                                         ; –ï—Å–ª–∏ –Ω–µ —Ä–µ–∂–∏–º —Ç–µ–∫—É—â–∏–π –∏–ª–∏ –Ω–µ –∑–∞–ø—É—â
                            –µ–Ω –ø—Ä–æ—Å—Ç–æ
005B   18A1           00219                                         btfsc pc_states, btn_wait_flag  ; –ü—Ä–æ–≤–µ—Ä–∫–∞, —á—Ç–æ —Ç–∞–
                            π–º–µ—Ä —É–∂–µ –∑–∞–ø—É—â–µ–Ω
005C   2???           00220                                         GOTO ONLY_set_bitSB2
                      00221                                         ; –ï—Å–ª–∏ –Ω–µ –∑–∞–ø—É—â–µ–Ω —Ç–∞–π–º–µ—Ä
005D   3042           00222                                         movlw b'01000010' 
005E   1683           00223                                         banksel OPTION_REG
Message[302]: Register in operand not in bank 0.  Ensure that bank bits are correct.
005F   0081           00224                                         movwf OPTION_REG
0060   30BB           00225                                         movlw 0BBh
0061   1283           00226                                         banksel TMR0
0062   0081           00227                                         movwf TMR0                                      ; –¢—É—Ç —Å—Ç–∞—
                            Ä—Ç–æ–≤–∞–ª —Ç–∞–π–º–µ—Ä –Ω–∞ 1 –º—Å
0063   168B           00228                                         bsf INTCON, T0IE                        ; –¢—É—Ç —Ä–∞–∑—Ä–µ—à–∏–
                            ª–∏ –ø—Ä–µ–æ—ã–≤–∞–Ω–∏—è
0064   14A1           00229                                         bsf pc_states, btn_wait_flag
MPASM 5.76                          MAIN.ASM   11-25-2021  16:34:21         PAGE  6


LOC  OBJECT CODE     LINE SOURCE TEXT
  VALUE

Warning[207]: Found label after column 1. (ONLY_set_bitSB2)
0065                  00230                                 ONLY_set_bitSB2 
0065   1521           00231                                         bsf pc_states, btn2_st                  ; –ó–∞–ø–∏—Å—å, —á—Ç–æ –
                            ∫–Ω–æ–ø–∫–∞ 2 –Ω–∞–∂–∞—Ç–∞ 
                      00232                                         ;CALL Start_Mode1
0066   100B           00233                                         bcf INTCON, GPIF                        
0067   2???           00234                                         CALL SavePortStates
0068   0009           00235                                         retfie
                      00236 
                      00237                         
Warning[207]: Found label after column 1. (SB3_check)
0069                  00238                 SB3_check       
0069   1283           00239                         banksel GPIO
006A   1E85           00240                         btfss GPIO, GPIO5
006B   2???           00241                         GOTO SB3_Pressed ; –ï—Å–ª–∏ –Ω–∞–∂–∞—Ç–∞ –≤—Å–µ-—Ç–∞–∫–∏ –∫–ª–∞–≤–∏—à–∞ 3
006C   100B           00242                         bcf INTCON, GPIF
006D   2???           00243                         CALL SavePortStates
                      00244                         ; –ù–∏ –æ–¥–Ω–∞ –∫–Ω–æ–ø–∫–∞ –Ω–µ –±—ã–ª–∞ –Ω–∞–∂–∞—Ç–∞, —Å–ª–µ–¥–æ–≤–∞—Ç–µ–ª—å–
                            Ω–æ, –ø—Ä–æ–∏–∑–æ—à–ª–æ –û–¢–ñ–ê–¢–ò–ï
006E   0009           00245                         retfie
Warning[207]: Found label after column 1. (SB3_Pressed)
006F                  00246                         SB3_Pressed
                      00247                                 ; –û–±—Ä–∞–±–æ—Ç–∫–∞ –Ω–∞–∂–∞—Ç–∏—è –∫–ª–∞–≤–∏—à–∏ SB3 + –ø—Ä–æ–≤–µ—Ä–∫–
                            ∞ –Ω–∞–∂–∞—Ç–∏—è —Å—Ä–∞–∑—É –ø–µ—Ä–≤–æ–π
006F   1985           00248                                 btfsc GPIO, GPIO3
0070   2???           00249                                 GOTO ONLY_SB3
                      00250                                         ; –ï—Å–ª–∏ –Ω–∞–∂–∞—Ç—ã –¥–≤–µ –∫–Ω–æ–ø–∫–∏
0071   128B           00251                                         bcf INTCON, T0IE
0072   3001           00252                                         movlw 1h
0073   05A1           00253                                         andwf pc_states, f
0074   2???           00254                                         CALL Start_Mode3
0075   100B           00255                                         bcf INTCON, GPIF
0076   2???           00256                                         CALL SavePortStates
0077   0009           00257                                         retfie
                      00258                                 
Warning[207]: Found label after column 1. (ONLY_SB3)
0078                  00259                                 ONLY_SB3
                      00260                                                 ; –ó–∞–ø—É—Å–∫ —Ç–∞–π–º–µ—Ä–∞ –Ω–∞ 1 –º—Å –≤ –æ–∂–∏–¥–∞–
                            Ω–∏–∏ –Ω–∞–∂–∞—Ç–∏—è –ü–ï–†–í–û–ô  –∫–Ω–æ–ø–∫–∏, –ø–æ—Å–ª–µ —ç—Ç–æ–≥–æ –ø—Ä–æ–∏—Å—Ö–æ–¥–∏—Ç –æ–±
0078   1820           00261                                         btfsc sound_flags, snd1_flag
0079   2???           00262                                                 GOTO Reset2SecTimer; –ï—Å–ª–∏ —Ç–µ–∫—É—â–∏–π —Ä–µ–∂–∏–º 
                            –ø–æ–¥–æ—à—ë–ª
                      00263                                                 
                      00264                                                 ; –ï—Å–ª–∏ –Ω–µ —Ä–µ–∂–∏–º —Ç–µ–∫—É—â–∏–π –∏–ª–∏ –Ω–µ –∑
                            –∞–ø—É—â–µ–Ω –ø—Ä–æ—Å—Ç–æ       
007A   110B           00265                                                 bcf INTCON, T0IF
007B   18A1           00266                                                 btfsc pc_states, btn_wait_flag          ; –ü—Ä–æ–≤–µ—Ä–∫
                            –∞, —á—Ç–æ —Ç–∞–π–º–µ—Ä —É–∂–µ –∑–∞–ø—É—â–µ–Ω
007C   2???           00267                                                 GOTO ONLY_set_bitSB3
                      00268                                                 ; –ï—Å–ª–∏ –Ω–µ –∑–∞–ø—É—â–µ–Ω —Ç–∞–π–º–µ—Ä
007D   3042           00269                                                 movlw b'01000010' 
007E   1683           00270                                                 banksel OPTION_REG
Message[302]: Register in operand not in bank 0.  Ensure that bank bits are correct.
MPASM 5.76                          MAIN.ASM   11-25-2021  16:34:21         PAGE  7


LOC  OBJECT CODE     LINE SOURCE TEXT
  VALUE

007F   0081           00271                                                 movwf OPTION_REG
0080   30BB           00272                                                 movlw 0BBh
0081   1283           00273                                                 banksel TMR0
0082   0081           00274                                                 movwf TMR0                                      ; –¢—É—Ç
                             —Å—Ç–∞—Ä—Ç–æ–≤–∞–ª —Ç–∞–π–º–µ—Ä –Ω–∞ 1 –º—Å
0083   168B           00275                                                 bsf INTCON, T0IE                        ; –¢—É—Ç —Ä–∞–∑—
                            Ä–µ—à–∏–ª–∏ –ø—Ä–µ–æ—ã–≤–∞–Ω–∏—è
0084   14A1           00276                                                 bsf pc_states, btn_wait_flag
Warning[207]: Found label after column 1. (ONLY_set_bitSB3)
0085                  00277                                         ONLY_set_bitSB3
0085   15A1           00278                                                 bsf pc_states, btn3_st                  ; –ó–∞–ø–∏—Å—å, 
                            —á—Ç–æ –∫–Ω–æ–ø–∫–∞ 2 –Ω–∞–∂–∞—Ç–∞ 
                      00279                                                 ;CALL Start_Mode2
0086   100B           00280                                                 bcf INTCON, GPIF
0087   2???           00281                                                 CALL SavePortStates
0088   0009           00282                                                 retfie
                      00283                                         
                      00284         
0089                  00285 Start_Mode3
                      00286         ; –ó–∞–ø—É—Å—Ç–∏—Ç—å —Ç–∞–π–º–µ—Ä –¥–ª—è –≤—Ä–µ–º–µ–Ω–∏ –≤ 2 —Å–µ–∫ (–¢–∞–π–º–µ—Ä 0)
0089   2???           00287         CALL Start2SecTmr
                      00288         ; –ó–∞–ø—É—Å—Ç–∏—Ç—å —Ç–∞–π–º–µ—Ä 1 –¥–ª—è –æ—Ç—Ä–∞–±–∞—Ç—ã–≤–∞–Ω–∏—è –∑–≤—É–∫–∞ —Å –∑–∞–¥–∞–Ω–Ω
                            –æ–π —á–∞—Å—Ç–æ—Ç–æ–π –≤ 3 –∫–ì—Ü
008A   1920           00289         btfsc sound_flags, snd3_flag
008B   0008           00290         return; –ï—Å–ª–∏ —Ç–µ–∫—É—â–∏–π —Ä–µ–∂–∏–º –ø–æ–¥–æ—à—ë–ª
                      00291         ; –ï—Å–ª–∏ –Ω–µ —Ä–µ–∂–∏–º —Ç–µ–∫—É—â–∏–π –∏–ª–∏ –Ω–µ –∑–∞–ø—É—â–µ–Ω –ø—Ä–æ—Å—Ç–æ
008C   30FE           00292         movlw 0FEh
008D   00A2           00293         movwf T1H_REG
008E   1283           00294         banksel TMR1H
008F   008F           00295         movwf TMR1H
0090   30B3           00296         movlw 0B3h
0091   00A3           00297         movwf T1L_REG
0092   008E           00298         movwf TMR1L
0093   1683           00299         banksel PIE1
Message[302]: Register in operand not in bank 0.  Ensure that bank bits are correct.
0094   140C           00300         bsf PIE1, TMR1IE
0095   170B           00301         bsf INTCON, PEIE
0096   1283           00302         banksel T1CON
0097   1410           00303         bsf T1CON, TMR1ON       ; –ó–∞–ø—É—Å–∫–∞–µ–º —Å–∞–º —Ç–∞–π–º–µ—Ä
0098   1520           00304         bsf sound_flags, snd3_flag
0099   0008           00305         return
                      00306         
009A                  00307 Start2SecTmr
009A   3046           00308         movlw b'01000110'
009B   1683           00309         banksel OPTION_REG
Message[302]: Register in operand not in bank 0.  Ensure that bank bits are correct.
009C   0081           00310         movwf OPTION_REG
009D   307D           00311         movlw 7Dh
009E   00A4           00312         movwf T02SecScaler
009F   168B           00313         bsf INTCON, T0IE                        ; –¢—É—Ç —Ä–∞–∑—Ä–µ—à–∏–ª–∏ –ø—Ä–µ–æ—ã–≤–∞–Ω–∏—è
00A0   110B           00314         bcf INTCON, T0IF
00A1   0008           00315         return
                      00316         
MPASM 5.76                          MAIN.ASM   11-25-2021  16:34:21         PAGE  8


LOC  OBJECT CODE     LINE SOURCE TEXT
  VALUE

00A2                  00317 T0_INT
                      00318         ;bsf INTCON, GIE
                      00319         
00A2   1CA1           00320         btfss pc_states, btn_wait_flag
00A3   2???           00321         GOTO Check_on2sec
                      00322                 ; –ï—Å–ª–∏ –ø–æ –∏—Å—Ç–µ—á–µ–Ω–∏—é 1 –º—Å –¥–ª—è –∫–Ω–æ–ø–æ–∫
00A4   1D21           00323                 btfss pc_states, btn2_st
00A5   2???           00324                 GOTO Check_btn3
                      00325                         ; –ï—Å–ª–∏ –Ω–∞–∂–∞—Ç–∞ 1 –∫–Ω–æ–ø–∫–∞
00A6   1DA1           00326                         btfss pc_states, btn3_st                ; –ù–∞–∂–∞—Ç–∞ –ª–∏ –≤—Ç–æ—Ä–∞—è?
00A7   2???           00327                         GOTO Pressed_ONLY_btn2 ; –ï—Å–ª–∏ –Ω–∞–∂–∞—Ç–∞ —Ç–æ–ª—å–∫–æ –æ–¥–Ω–∞
                      00328                                 ; –ï—Å–ª–∏ –Ω–∞–∂–∞—Ç—ã –¥–≤–µ –∫–Ω–æ–ø–∫–∏
00A8   3001           00329                                 movlw 1h
00A9   05A1           00330                                 andwf pc_states, f
00AA   2???           00331                                 CALL Start_Mode3
00AB   0009           00332                                 retfie
Warning[207]: Found label after column 1. (Pressed_ONLY_btn2)
00AC                  00333                         Pressed_ONLY_btn2
00AC   3001           00334                                 movlw 1h
00AD   05A1           00335                                 andwf pc_states, f
00AE   2???           00336                                 CALL Start_Mode1
00AF   0009           00337                                 retfie
Warning[207]: Found label after column 1. (Check_btn3)
00B0                  00338                 Check_btn3
                      00339                         ; –ï—Å–ª–∏ –Ω–∞–∂–∞—Ç–∞ –¢–û–õ–¨–ö–û 2 –∫–Ω–æ–ø–∫–∞
00B0   3001           00340                         movlw 1h
00B1   05A1           00341                         andwf pc_states, f
00B2   2???           00342                         CALL Start_Mode2
00B3   0009           00343                         retfie
                      00344                         
                      00345         ; –ï—Å–ª–∏ –≤—ã—à–ª–æ –≤—Ä–µ–º—è –≤ 2 —Å–µ–∫    
Warning[207]: Found label after column 1. (Check_on2sec)
00B4                  00346         Check_on2sec            
00B4   0BA4           00347                 decfsz T02SecScaler, f
00B5   2???           00348                 GOTO ScalerNotZero
00B6   2???           00349                 GOTO ScalerISZero
                      00350                         
Warning[207]: Found label after column 1. (ScalerISZero)
00B7                  00351                 ScalerISZero
00B7   1283           00352                         banksel T1CON
00B8   01A0           00353                         clrf sound_flags
00B9   128B           00354                         bcf INTCON, T0IE ; –í—ã–∫–ª—é—á–∞–µ–º –ø—Ä–µ—Ä—ã–≤–∞–Ω–∏—è –¢–∞–π–º–µ—Ä–∞ 0
                      00355                         ;bcf PIE1, TMR0IE ; –í—ã–∫–ª—é—á–∞–µ–º –ø—Ä–µ—Ä—ã–≤–∞–Ω–∏—è –¢–∞–π–º–µ—Ä–∞ 1
00BA   1010           00356                         bcf T1CON, TMR1ON  ; –í—ã–∫–ª—é—á–∞–µ–º –¢–∞–π–º–µ—Ä 1
00BB   0009           00357                         retfie
                      00358                         
Warning[207]: Found label after column 1. (ScalerNotZero)
00BC                  00359                 ScalerNotZero
00BC   3083           00360                         movlw 83h
00BD   0081           00361                         movwf TMR0
00BE   110B           00362                         bcf INTCON, T0IF
00BF   168B           00363                         bsf INTCON, T0IE
00C0   0009           00364                         retfie
MPASM 5.76                          MAIN.ASM   11-25-2021  16:34:21         PAGE  9


LOC  OBJECT CODE     LINE SOURCE TEXT
  VALUE

                      00365                 
00C1                  00366 T1_INT
                      00367         ;bsf INTCON, GIE
00C1   1283           00368         banksel GPIO
00C2   1C05           00369         btfss GPIO, sound
00C3   2???           00370         GOTO SET1_inSound
                      00371                 ; –ï—Å–ª–∏ —Å–µ–π—á–∞—Å SOUND = 1
00C4   1005           00372                 bcf GPIO, sound
00C5   2???           00373                 GOTO T1_refull
Warning[207]: Found label after column 1. (SET1_inSound)
00C6                  00374         SET1_inSound ; –ï—Å–ª–∏ —Å–µ–π—á–∞—Å SOUND = 0
00C6   1405           00375                 bsf GPIO, sound
                      00376                 
Warning[207]: Found label after column 1. (T1_refull)
00C7                  00377         T1_refull
00C7   0822           00378                 movf T1H_REG, w
00C8   008F           00379                 movwf TMR1H
00C9   0823           00380                 movf T1L_REG, w
00CA   008E           00381                 movwf TMR1L
00CB   1283           00382                 banksel PIR1
00CC   100C           00383                 bcf PIR1, TMR1IF
00CD   0009           00384                 retfie
                      00385                 
00CE                  00386 Start_Mode1
                      00387         ; –ó–∞–ø—É—Å—Ç–∏—Ç—å —Ç–∞–π–º–µ—Ä –¥–ª—è –≤—Ä–µ–º–µ–Ω–∏ –≤ 2 —Å–µ–∫ (–¢–∞–π–º–µ—Ä 0)
00CE   2???           00388         CALL Start2SecTmr
                      00389         ; –ó–∞–ø—É—Å—Ç–∏—Ç—å —Ç–∞–π–º–µ—Ä 1 –¥–ª—è –æ—Ç—Ä–∞–±–∞—Ç—ã–≤–∞–Ω–∏—è –∑–≤—É–∫–∞ —Å –∑–∞–¥–∞–Ω–Ω
                            –æ–π —á–∞—Å—Ç–æ—Ç–æ–π –≤ 3 –∫–ì—Ü
00CF   1820           00390         btfsc sound_flags, snd1_flag
00D0   0008           00391         return; –ï—Å–ª–∏ —Ç–µ–∫—É—â–∏–π —Ä–µ–∂–∏–º –ø–æ–¥–æ—à—ë–ª
                      00392         ; –ï—Å–ª–∏ –Ω–µ —Ä–µ–∂–∏–º —Ç–µ–∫—É—â–∏–π –∏–ª–∏ –Ω–µ –∑–∞–ø—É—â–µ–Ω –ø—Ä–æ—Å—Ç–æ
00D1   30FC           00393         movlw 0FCh
00D2   00A2           00394         movwf T1H_REG
00D3   1283           00395         banksel TMR1H
00D4   008F           00396         movwf TMR1H
00D5   3018           00397         movlw 18h
00D6   00A3           00398         movwf T1L_REG
00D7   008E           00399         movwf TMR1L
00D8   1683           00400         banksel PIE1
Message[302]: Register in operand not in bank 0.  Ensure that bank bits are correct.
00D9   140C           00401         bsf PIE1, TMR1IE
00DA   170B           00402         bsf INTCON, PEIE
00DB   1283           00403         banksel T1CON
00DC   1410           00404         bsf T1CON, TMR1ON       ; –ó–∞–ø—É—Å–∫–∞–µ–º —Å–∞–º —Ç–∞–π–º–µ—Ä
00DD   1420           00405         bsf sound_flags, snd1_flag
00DE   0008           00406         return
                      00407         
                      00408         
00DF                  00409 Start_Mode2
                      00410 ; –ó–∞–ø—É—Å—Ç–∏—Ç—å —Ç–∞–π–º–µ—Ä –¥–ª—è –≤—Ä–µ–º–µ–Ω–∏ –≤ 2 —Å–µ–∫ (–¢–∞–π–º–µ—Ä 0)
00DF   2???           00411         CALL Start2SecTmr
                      00412         ; –ó–∞–ø—É—Å—Ç–∏—Ç—å —Ç–∞–π–º–µ—Ä 1 –¥–ª—è –æ—Ç—Ä–∞–±–∞—Ç—ã–≤–∞–Ω–∏—è –∑–≤—É–∫–∞ —Å –∑–∞–¥–∞–Ω–Ω
                            –æ–π —á–∞—Å—Ç–æ—Ç–æ–π –≤ 3 –∫–ì—Ü
MPASM 5.76                          MAIN.ASM   11-25-2021  16:34:21         PAGE 10


LOC  OBJECT CODE     LINE SOURCE TEXT
  VALUE

00E0   18A0           00413         btfsc sound_flags, snd2_flag
00E1   0008           00414         return; –ï—Å–ª–∏ —Ç–µ–∫—É—â–∏–π —Ä–µ–∂–∏–º –ø–æ–¥–æ—à—ë–ª
                      00415         ; –ï—Å–ª–∏ –Ω–µ —Ä–µ–∂–∏–º —Ç–µ–∫—É—â–∏–π –∏–ª–∏ –Ω–µ –∑–∞–ø—É—â–µ–Ω –ø—Ä–æ—Å—Ç–æ
00E2   30FE           00416         movlw 0FEh
00E3   00A2           00417         movwf T1H_REG
00E4   1283           00418         banksel TMR1H
00E5   008F           00419         movwf TMR1H
00E6   300C           00420         movlw 0Ch
00E7   00A3           00421         movwf T1L_REG
00E8   008E           00422         movwf TMR1L
00E9   1683           00423         banksel PIE1
Message[302]: Register in operand not in bank 0.  Ensure that bank bits are correct.
00EA   140C           00424         bsf PIE1, TMR1IE
00EB   170B           00425         bsf INTCON, PEIE
00EC   1283           00426         banksel T1CON
00ED   1410           00427         bsf T1CON, TMR1ON       ; –ó–∞–ø—É—Å–∫–∞–µ–º —Å–∞–º —Ç–∞–π–º–µ—Ä
00EE   14A0           00428         bsf sound_flags, snd2_flag
00EF   0008           00429         return
                      00430 
00F0                  00431 START
00F0   2???           00432         CALL Init
Warning[207]: Found label after column 1. (Start_loop)
00F1                  00433         Start_loop
00F1   2???           00434         GOTO Start_loop
                      00435 ;====================================================================
3FD4                  00436       END
MPASM 5.76                          MAIN.ASM   11-25-2021  16:34:21         PAGE 11


SYMBOL TABLE
  LABEL                             VALUE 

ADCON0                            0000001F
ADCS0                             00000004
ADCS1                             00000005
ADCS2                             00000006
ADFM                              00000007
ADIE                              00000006
ADIF                              00000006
ADON                              00000000
ADRESH                            0000001E
ADRESL                            0000009E
ANS0                              00000000
ANS1                              00000001
ANS2                              00000002
ANS3                              00000003
ANSEL                             0000009F
Accum                             00000026
C                                 00000000
CAL0                              00000002
CAL1                              00000003
CAL2                              00000004
CAL3                              00000005
CAL4                              00000006
CAL5                              00000007
CHS0                              00000002
CHS1                              00000003
CINV                              00000004
CIS                               00000003
CM0                               00000000
CM1                               00000001
CM2                               00000002
CMCON                             00000019
CMIE                              00000003
CMIF                              00000003
COUT                              00000006
CheckOnDownChanges                00000031
Check_btn3                        000000B0
Check_on2sec                      000000B4
CompareSB2_1                      00000034
CompareSB3                        00000038
CompareSB3_1                      0000003C
DC                                00000001
EEADR                             0000009B
EECON1                            0000009C
EECON2                            0000009D
EEDAT                             0000009A
EEDATA                            0000009A
EEIE                              00000007
EEIF                              00000007
F                                 00000001
FSR                               00000004
GIE                               00000007
GO                                00000001
GO_DONE                           00000001
MPASM 5.76                          MAIN.ASM   11-25-2021  16:34:21         PAGE 12


SYMBOL TABLE
  LABEL                             VALUE 

GO_NOT_DONE                       00000001
GP0                               00000000
GP1                               00000001
GP2                               00000002
GP3                               00000003
GP4                               00000004
GP5                               00000005
GPIE                              00000003
GPIF                              00000000
GPIO                              00000005
GPIO0                             00000000
GPIO1                             00000001
GPIO2                             00000002
GPIO3                             00000003
GPIO4                             00000004
GPIO5                             00000005
GPIO_DATA                         00000028
GPIO_INT                          00000046
IINT_HNDL                         00000025
INDF                              00000000
INTCON                            0000000B
INTE                              00000004
INTEDG                            00000006
INTERRUPT_INIT                    000000C8
INTF                              00000001
IOC                               00000096
IOC0                              00000000
IOC1                              00000001
IOC2                              00000002
IOC3                              00000003
IOC4                              00000004
IOC5                              00000005
IOCB                              00000096
IOCB0                             00000000
IOCB1                             00000001
IOCB2                             00000002
IOCB3                             00000003
IOCB4                             00000004
IOCB5                             00000005
IOC_INIT                          00000028
IRP                               00000007
IfUp                              0000004C
Init                              00000000
LastPortState                     00000025
NOT_BOD                           00000000
NOT_BOR                           00000000
NOT_DONE                          00000001
NOT_GPPU                          00000007
NOT_PD                            00000003
NOT_POR                           00000001
NOT_T1SYNC                        00000002
NOT_TO                            00000004
Nothing                           00000040
MPASM 5.76                          MAIN.ASM   11-25-2021  16:34:21         PAGE 13


SYMBOL TABLE
  LABEL                             VALUE 

ONLY_SB2                          00000058
ONLY_SB3                          00000078
ONLY_set_bitSB2                   00000065
ONLY_set_bitSB3                   00000085
OPTION_REG                        00000081
OSCCAL                            00000090
PCL                               00000002
PCLATH                            0000000A
PCON                              0000008E
PEIE                              00000006
PIE1                              0000008C
PIE1_INIT                         00000000
PIR1                              0000000C
PS0                               00000000
PS1                               00000001
PS2                               00000002
PSA                               00000003
Pressed_ONLY_btn2                 000000AC
RD                                00000000
RP0                               00000005
RP1                               00000006
Reset2SecTimer                    00000042
SB2_check                         0000004C
SB3_Pressed                       0000006F
SB3_check                         00000069
SET1_inSound                      000000C6
START                             000000F0
STATUS                            00000003
SavePortStates                    0000002D
ScalerISZero                      000000B7
ScalerNotZero                     000000BC
Start2SecTmr                      0000009A
Start_Mode1                       000000CE
Start_Mode2                       000000DF
Start_Mode3                       00000089
Start_loop                        000000F1
T02SecScaler                      00000024
T0CS                              00000005
T0IE                              00000005
T0IF                              00000002
T0SE                              00000004
T0_INT                            000000A2
T1CKPS0                           00000004
T1CKPS1                           00000005
T1CON                             00000010
T1CON_INIT                        00000000
T1H_REG                           00000022
T1IE                              00000000
T1IF                              00000000
T1L_REG                           00000023
T1OSCEN                           00000003
T1_INT                            000000C1
T1_refull                         000000C7
MPASM 5.76                          MAIN.ASM   11-25-2021  16:34:21         PAGE 14


SYMBOL TABLE
  LABEL                             VALUE 

TMR0                              00000001
TMR0IE                            00000005
TMR0IF                            00000002
TMR0_INIT                         00000000
TMR1                              0000000E
TMR1CS                            00000001
TMR1GE                            00000006
TMR1H                             0000000F
TMR1H_INIT                        00000000
TMR1IE                            00000000
TMR1IF                            00000000
TMR1L                             0000000E
TMR1L_INIT                        00000000
TMR1ON                            00000000
TRISIO                            00000085
TRISIO0                           00000000
TRISIO1                           00000001
TRISIO2                           00000002
TRISIO3                           00000003
TRISIO4                           00000004
TRISIO5                           00000005
VCFG                              00000006
VR0                               00000000
VR1                               00000001
VR2                               00000002
VR3                               00000003
VRCON                             00000099
VREN                              00000007
VRR                               00000005
W                                 00000000
WPU                               00000095
WPU0                              00000000
WPU1                              00000001
WPU2                              00000002
WPU4                              00000004
WPU5                              00000005
WPU_INIT                          00000017
WR                                00000001
WREN                              00000002
WRERR                             00000003
Z                                 00000002
_BODEN_OFF                        00003FBF
_BODEN_ON                         00003FFF
_BOREN_OFF                        00003FBF
_BOREN_ON                         00003FFF
_CONFIG                           00002007
_CPD_OFF                          00003FFF
_CPD_ON                           00003EFF
_CP_OFF                           00003FFF
_CP_ON                            00003F7F
_DEVID1                           00002006
_EC_OSC                           00003FFB
_EXTRC_OSC_CLKOUT                 00003FFF
MPASM 5.76                          MAIN.ASM   11-25-2021  16:34:21         PAGE 15


SYMBOL TABLE
  LABEL                             VALUE 

_EXTRC_OSC_NOCLKOUT               00003FFE
_FOSC_EC                          00003FFB
_FOSC_EXTRCCLK                    00003FFF
_FOSC_EXTRCIO                     00003FFE
_FOSC_HS                          00003FFA
_FOSC_INTRCCLK                    00003FFD
_FOSC_INTRCIO                     00003FFC
_FOSC_LP                          00003FF8
_FOSC_XT                          00003FF9
_HS_OSC                           00003FFA
_IDLOC0                           00002000
_IDLOC1                           00002001
_IDLOC2                           00002002
_IDLOC3                           00002003
_INTRC_OSC_CLKOUT                 00003FFD
_INTRC_OSC_NOCLKOUT               00003FFC
_LP_OSC                           00003FF8
_MCLRE_OFF                        00003FDF
_MCLRE_ON                         00003FFF
_PWRTE_OFF                        00003FFF
_PWRTE_ON                         00003FEF
_WDTE_OFF                         00003FF7
_WDTE_ON                          00003FFF
_WDT_OFF                          00003FF7
_WDT_ON                           00003FFF
_XT_OSC                           00003FF9
__12F675                          00000001
btn1                              00000003
btn2                              00000005
btn2_st                           00000002
btn3_st                           00000003
btn_wait_flag                     00000001
in_work_flag                      00000000
pc_states                         00000021
snd1_flag                         00000000
snd2_flag                         00000001
snd3_flag                         00000002
sound                             00000000
sound_flags                       00000020

Errors   :     0
Warnings :    23 reported,     0 suppressed
Messages :    14 reported,     0 suppressed

